target datalayout = "e-m:e-p270:32:32-p271:32:32-p272:64:64-i64:64-i128:128-f80:128-n8:16:32:64-S128"
target triple = "x86_64-pc-linux-gnu"

%struct.FunctionCallInfoBaseData = type { ptr, ptr, ptr, i32, i8, i16, [0 x %struct.NullableDatum] }
%struct.NullableDatum = type { i64, i8 }
%union.anon.4 = type { i64 }

; Function Attrs: inlinehint nounwind uwtable
define internal i64 @DatumGetInt64(i64 noundef %0) #1 {
  %2 = alloca i64, align 8
  store i64 %0, ptr %2, align 8
  %3 = load i64, ptr %2, align 8
  ret i64 %3
}

; Function Attrs: inlinehint nounwind uwtable
define internal i64 @hash_any(ptr noundef %0, i32 noundef %1) #1 {
  %3 = alloca ptr, align 8
  %4 = alloca i32, align 4
  store ptr %0, ptr %3, align 8
  store i32 %1, ptr %4, align 4
  %5 = load ptr, ptr %3, align 8
  %6 = load i32, ptr %4, align 4
  %7 = call i32 @hash_bytes(ptr noundef %5, i32 noundef %6)
  %8 = call i64 @UInt32GetDatum(i32 noundef %7)
  ret i64 %8
}

; Function Attrs: inlinehint nounwind uwtable
define internal double @get_float8_nan() #1 {
  ret double 0x7FF8000000000000
}

; Function Attrs: inlinehint nounwind uwtable
define internal i64 @UInt32GetDatum(i32 noundef %0) #1 {
  %2 = alloca i32, align 4
  store i32 %0, ptr %2, align 4
  %3 = load i32, ptr %2, align 4
  %4 = zext i32 %3 to i64
  ret i64 %4
}

; Function Attrs: inlinehint nounwind uwtable
define internal double @DatumGetFloat8(i64 noundef %0) #1 {
  %2 = alloca i64, align 8
  %3 = alloca %union.anon.4, align 8
  store i64 %0, ptr %2, align 8
  call void @llvm.lifetime.start.p0(i64 8, ptr %3) #7
  %4 = load i64, ptr %2, align 8
  %5 = call i64 @DatumGetInt64(i64 noundef %4)
  store i64 %5, ptr %3, align 8
  %6 = load double, ptr %3, align 8
  call void @llvm.lifetime.end.p0(i64 8, ptr %3) #7
  ret double %6
}

; Function Attrs: nounwind uwtable
define dso_local i64 @hashfloat8(ptr noundef %0) #0 {
  %2 = alloca i64, align 8
  %3 = alloca ptr, align 8
  %4 = alloca double, align 8
  %5 = alloca i32, align 4
  store ptr %0, ptr %3, align 8
  call void @llvm.lifetime.start.p0(i64 8, ptr %4) #7
  %6 = load ptr, ptr %3, align 8
  %7 = getelementptr inbounds nuw %struct.FunctionCallInfoBaseData, ptr %6, i32 0, i32 6
  %8 = getelementptr inbounds [0 x %struct.NullableDatum], ptr %7, i64 0, i64 0
  %9 = getelementptr inbounds nuw %struct.NullableDatum, ptr %8, i32 0, i32 0
  %10 = load i64, ptr %9, align 8
  %11 = call double @DatumGetFloat8(i64 noundef %10)
  store double %11, ptr %4, align 8
  %12 = load double, ptr %4, align 8
  %13 = fcmp oeq double %12, 0.000000e+00
  br i1 %13, label %14, label %16

14:                                               ; preds = %1
  %15 = call i64 @UInt32GetDatum(i32 noundef 0)
  store i64 %15, ptr %2, align 8
  store i32 1, ptr %5, align 4
  br label %23

16:                                               ; preds = %1
  %17 = load double, ptr %4, align 8
  %18 = call i1 @llvm.is.fpclass.f64(double %17, i32 3)
  br i1 %18, label %19, label %21

19:                                               ; preds = %16
  %20 = call double @get_float8_nan()
  store double %20, ptr %4, align 8
  br label %21

21:                                               ; preds = %19, %16
  %22 = call i64 @hash_any(ptr noundef %4, i32 noundef 8)
  store i64 %22, ptr %2, align 8
  store i32 1, ptr %5, align 4
  br label %23

23:                                               ; preds = %21, %14
  call void @llvm.lifetime.end.p0(i64 8, ptr %4) #7
  %24 = load i64, ptr %2, align 8
  ret i64 %24
}