; Function Attrs: nounwind uwtable
define dso_local range(i64 0, 4294967296) i64 @hashfloat8(ptr noundef readonly captures(none) %0) local_unnamed_addr #0 {
  %2 = alloca double, align 8
  call void @llvm.lifetime.start.p0(i64 8, ptr nonnull %2) #6
  %3 = getelementptr inbounds nuw i8, ptr %0, i64 32
  %4 = load double, ptr %3, align 8
  store double %4, ptr %2, align 8
  %5 = fcmp oeq double %4, 0.000000e+00
  br i1 %5, label %12, label %6

6:                                                ; preds = %1
  %7 = fcmp uno double %4, 0.000000e+00
  br i1 %7, label %8, label %9

8:                                                ; preds = %6
  store double 0x7FF8000000000000, ptr %2, align 8
  br label %9

9:                                                ; preds = %8, %6
  %10 = call i32 @hash_bytes(ptr noundef nonnull %2, i32 noundef 8) #6
  %11 = zext i32 %10 to i64
  br label %12

12:                                               ; preds = %1, %9
  %.0 = phi i64 [ %11, %9 ], [ 0, %1 ]
  call void @llvm.lifetime.end.p0(i64 8, ptr nonnull %2) #6
  ret i64 %.0
}